; ModuleID = '15/1538.c'
source_filename = "15/1538.c"
target datalayout = "e-m:e-p270:32:32-p271:32:32-p272:64:64-i64:64-f80:128-n8:16:32:64-S128"
target triple = "x86_64-pc-linux-gnu"

@.str = private unnamed_addr constant [3 x i8] c"%d\00", align 1

; Function Attrs: noinline nounwind uwtable
define dso_local i32 @main() #0 {
  %1 = alloca i32, align 4
  %2 = alloca i32, align 4
  %3 = alloca i32, align 4
  %4 = alloca i32, align 4
  %5 = alloca i32, align 4
  %6 = alloca i32, align 4
  %7 = alloca i32, align 4
  %8 = alloca i32, align 4
  %9 = alloca i32, align 4
  %10 = alloca i32, align 4
  %11 = alloca [100 x [100 x i32]], align 16
  store i32 0, i32* %1, align 4
  store i32 0, i32* %5, align 4
  store i32 1, i32* %6, align 4
  %12 = call i32 (i8*, ...) @__isoc99_scanf(i8* getelementptr inbounds ([3 x i8], [3 x i8]* @.str, i64 0, i64 0), i32* %2)
  store i32 0, i32* %3, align 4
  br label %13

13:                                               ; preds = %61, %0
  %14 = load i32, i32* %3, align 4
  %15 = load i32, i32* %2, align 4
  %16 = icmp slt i32 %14, %15
  br i1 %16, label %17, label %64

17:                                               ; preds = %13
  store i32 0, i32* %4, align 4
  br label %18

18:                                               ; preds = %57, %17
  %19 = load i32, i32* %4, align 4
  %20 = load i32, i32* %2, align 4
  %21 = icmp slt i32 %19, %20
  br i1 %21, label %22, label %60

22:                                               ; preds = %18
  %23 = load i32, i32* %3, align 4
  %24 = sext i32 %23 to i64
  %25 = getelementptr inbounds [100 x [100 x i32]], [100 x [100 x i32]]* %11, i64 0, i64 %24
  %26 = load i32, i32* %4, align 4
  %27 = sext i32 %26 to i64
  %28 = getelementptr inbounds [100 x i32], [100 x i32]* %25, i64 0, i64 %27
  %29 = call i32 (i8*, ...) @__isoc99_scanf(i8* getelementptr inbounds ([3 x i8], [3 x i8]* @.str, i64 0, i64 0), i32* %28)
  %30 = load i32, i32* %3, align 4
  %31 = sext i32 %30 to i64
  %32 = getelementptr inbounds [100 x [100 x i32]], [100 x [100 x i32]]* %11, i64 0, i64 %31
  %33 = load i32, i32* %4, align 4
  %34 = sext i32 %33 to i64
  %35 = getelementptr inbounds [100 x i32], [100 x i32]* %32, i64 0, i64 %34
  %36 = load i32, i32* %35, align 4
  %37 = icmp eq i32 %36, 0
  br i1 %37, label %38, label %44

38:                                               ; preds = %22
  %39 = load i32, i32* %6, align 4
  %40 = icmp eq i32 %39, 1
  br i1 %40, label %41, label %44

41:                                               ; preds = %38
  %42 = load i32, i32* %3, align 4
  store i32 %42, i32* %7, align 4
  %43 = load i32, i32* %4, align 4
  store i32 %43, i32* %9, align 4
  store i32 0, i32* %6, align 4
  br label %44

44:                                               ; preds = %41, %38, %22
  %45 = load i32, i32* %3, align 4
  %46 = sext i32 %45 to i64
  %47 = getelementptr inbounds [100 x [100 x i32]], [100 x [100 x i32]]* %11, i64 0, i64 %46
  %48 = load i32, i32* %4, align 4
  %49 = sext i32 %48 to i64
  %50 = getelementptr inbounds [100 x i32], [100 x i32]* %47, i64 0, i64 %49
  %51 = load i32, i32* %50, align 4
  %52 = icmp eq i32 %51, 0
  br i1 %52, label %53, label %56

53:                                               ; preds = %44
  %54 = load i32, i32* %3, align 4
  store i32 %54, i32* %8, align 4
  %55 = load i32, i32* %4, align 4
  store i32 %55, i32* %10, align 4
  br label %56

56:                                               ; preds = %53, %44
  br label %57

57:                                               ; preds = %56
  %58 = load i32, i32* %4, align 4
  %59 = add nsw i32 %58, 1
  store i32 %59, i32* %4, align 4
  br label %18

60:                                               ; preds = %18
  br label %61

61:                                               ; preds = %60
  %62 = load i32, i32* %3, align 4
  %63 = add nsw i32 %62, 1
  store i32 %63, i32* %3, align 4
  br label %13

64:                                               ; preds = %13
  %65 = load i32, i32* %8, align 4
  %66 = load i32, i32* %7, align 4
  %67 = sub nsw i32 %65, %66
  %68 = add nsw i32 %67, 1
  %69 = load i32, i32* %10, align 4
  %70 = load i32, i32* %9, align 4
  %71 = sub nsw i32 %69, %70
  %72 = add nsw i32 %71, 1
  %73 = mul nsw i32 %68, %72
  %74 = load i32, i32* %8, align 4
  %75 = load i32, i32* %7, align 4
  %76 = sub nsw i32 %74, %75
  %77 = add nsw i32 %76, 1
  %78 = mul nsw i32 2, %77
  %79 = sub nsw i32 %73, %78
  %80 = load i32, i32* %10, align 4
  %81 = load i32, i32* %9, align 4
  %82 = sub nsw i32 %80, %81
  %83 = sub nsw i32 %82, 1
  %84 = mul nsw i32 2, %83
  %85 = sub nsw i32 %79, %84
  store i32 %85, i32* %5, align 4
  %86 = load i32, i32* %5, align 4
  %87 = call i32 (i8*, ...) @printf(i8* getelementptr inbounds ([3 x i8], [3 x i8]* @.str, i64 0, i64 0), i32 %86)
  ret i32 0
}

declare dso_local i32 @__isoc99_scanf(i8*, ...) #1

declare dso_local i32 @printf(i8*, ...) #1


!llvm.module.flags = !{!0}
!llvm.ident = !{!1}

!0 = !{i32 1, !"wchar_size", i32 4}
!1 = !{!"clang version 10.0.0-4ubuntu1 "}
